target datalayout = "e-m:e-p270:32:32-p271:32:32-p272:64:64-i64:64-i128:128-f80:128-n8:16:32:64-S128"
target triple = "x86_64-pc-linux-gnu"

@.str = private unnamed_addr constant [32 x i8] c"../openssl/crypto/rsa/rsa_pk1.c\00", align 1
@__func__.RSA_padding_check_PKCS1_type_1 = private unnamed_addr constant [31 x i8] c"RSA_padding_check_PKCS1_type_1\00", align 1

; Function Attrs: nounwind uwtable
define i32 @RSA_padding_check_PKCS1_type_1(ptr noundef %0, i32 noundef %1, ptr noundef %2, i32 noundef %3, i32 noundef %4) #0 {
  %6 = alloca i32, align 4
  %7 = alloca ptr, align 8
  %8 = alloca i32, align 4
  %9 = alloca ptr, align 8
  %10 = alloca i32, align 4
  %11 = alloca i32, align 4
  %12 = alloca i32, align 4
  %13 = alloca i32, align 4
  %14 = alloca ptr, align 8
  %15 = alloca i32, align 4
  store ptr %0, ptr %7, align 8, !tbaa !3
  store i32 %1, ptr %8, align 4, !tbaa !8
  store ptr %2, ptr %9, align 8, !tbaa !3
  store i32 %3, ptr %10, align 4, !tbaa !8
  store i32 %4, ptr %11, align 4, !tbaa !8
  call void @llvm.lifetime.start.p0(i64 4, ptr %12) #6
  call void @llvm.lifetime.start.p0(i64 4, ptr %13) #6
  call void @llvm.lifetime.start.p0(i64 8, ptr %14) #6
  %16 = load ptr, ptr %9, align 8, !tbaa !3
  store ptr %16, ptr %14, align 8, !tbaa !3
  %17 = load i32, ptr %11, align 4, !tbaa !8
  %18 = icmp slt i32 %17, 11
  br i1 %18, label %19, label %20

19:                                               ; preds = %5
  store i32 -1, ptr %6, align 4
  store i32 1, ptr %15, align 4
  br label %98

20:                                               ; preds = %5
  %21 = load i32, ptr %11, align 4, !tbaa !8
  %22 = load i32, ptr %10, align 4, !tbaa !8
  %23 = icmp eq i32 %21, %22
  br i1 %23, label %24, label %34

24:                                               ; preds = %20
  %25 = load ptr, ptr %14, align 8, !tbaa !3
  %26 = getelementptr inbounds nuw i8, ptr %25, i32 1
  store ptr %26, ptr %14, align 8, !tbaa !3
  %27 = load i8, ptr %25, align 1, !tbaa !10
  %28 = zext i8 %27 to i32
  %29 = icmp ne i32 %28, 0
  br i1 %29, label %30, label %31

30:                                               ; preds = %24
  call void @ERR_new()
  call void @ERR_set_debug(ptr noundef @.str, i32 noundef 79, ptr noundef @__func__.RSA_padding_check_PKCS1_type_1)
  call void (i32, i32, ptr, ...) @ERR_set_error(i32 noundef 4, i32 noundef 138, ptr noundef null)
  store i32 -1, ptr %6, align 4
  store i32 1, ptr %15, align 4
  br label %98

31:                                               ; preds = %24
  %32 = load i32, ptr %10, align 4, !tbaa !8
  %33 = add nsw i32 %32, -1
  store i32 %33, ptr %10, align 4, !tbaa !8
  br label %34

34:                                               ; preds = %31, %20
  %35 = load i32, ptr %11, align 4, !tbaa !8
  %36 = load i32, ptr %10, align 4, !tbaa !8
  %37 = add nsw i32 %36, 1
  %38 = icmp ne i32 %35, %37
  br i1 %38, label %45, label %39

39:                                               ; preds = %34
  %40 = load ptr, ptr %14, align 8, !tbaa !3
  %41 = getelementptr inbounds nuw i8, ptr %40, i32 1
  store ptr %41, ptr %14, align 8, !tbaa !3
  %42 = load i8, ptr %40, align 1, !tbaa !10
  %43 = zext i8 %42 to i32
  %44 = icmp ne i32 %43, 1
  br i1 %44, label %45, label %46

45:                                               ; preds = %39, %34
  call void @ERR_new()
  call void @ERR_set_debug(ptr noundef @.str, i32 noundef 86, ptr noundef @__func__.RSA_padding_check_PKCS1_type_1)
  call void (i32, i32, ptr, ...) @ERR_set_error(i32 noundef 4, i32 noundef 106, ptr noundef null)
  store i32 -1, ptr %6, align 4
  store i32 1, ptr %15, align 4
  br label %98

46:                                               ; preds = %39
  %47 = load i32, ptr %10, align 4, !tbaa !8
  %48 = sub nsw i32 %47, 1
  store i32 %48, ptr %13, align 4, !tbaa !8
  store i32 0, ptr %12, align 4, !tbaa !8
  br label %49

49:                                               ; preds = %70, %46
  %50 = load i32, ptr %12, align 4, !tbaa !8
  %51 = load i32, ptr %13, align 4, !tbaa !8
  %52 = icmp slt i32 %50, %51
  br i1 %52, label %53, label %73

53:                                               ; preds = %49
  %54 = load ptr, ptr %14, align 8, !tbaa !3
  %55 = load i8, ptr %54, align 1, !tbaa !10
  %56 = zext i8 %55 to i32
  %57 = icmp ne i32 %56, 255
  br i1 %57, label %58, label %67

58:                                               ; preds = %53
  %59 = load ptr, ptr %14, align 8, !tbaa !3
  %60 = load i8, ptr %59, align 1, !tbaa !10
  %61 = zext i8 %60 to i32
  %62 = icmp eq i32 %61, 0
  br i1 %62, label %63, label %66

63:                                               ; preds = %58
  %64 = load ptr, ptr %14, align 8, !tbaa !3
  %65 = getelementptr inbounds nuw i8, ptr %64, i32 1
  store ptr %65, ptr %14, align 8, !tbaa !3
  br label %73

66:                                               ; preds = %58
  call void @ERR_new()
  call void @ERR_set_debug(ptr noundef @.str, i32 noundef 98, ptr noundef @__func__.RSA_padding_check_PKCS1_type_1)
  call void (i32, i32, ptr, ...) @ERR_set_error(i32 noundef 4, i32 noundef 102, ptr noundef null)
  store i32 -1, ptr %6, align 4
  store i32 1, ptr %15, align 4
  br label %98

67:                                               ; preds = %53
  %68 = load ptr, ptr %14, align 8, !tbaa !3
  %69 = getelementptr inbounds nuw i8, ptr %68, i32 1
  store ptr %69, ptr %14, align 8, !tbaa !3
  br label %70

70:                                               ; preds = %67
  %71 = load i32, ptr %12, align 4, !tbaa !8
  %72 = add nsw i32 %71, 1
  store i32 %72, ptr %12, align 4, !tbaa !8
  br label %49, !llvm.loop !11

73:                                               ; preds = %63, %49
  %74 = load i32, ptr %12, align 4, !tbaa !8
  %75 = load i32, ptr %13, align 4, !tbaa !8
  %76 = icmp eq i32 %74, %75
  br i1 %76, label %77, label %78

77:                                               ; preds = %73
  call void @ERR_new()
  call void @ERR_set_debug(ptr noundef @.str, i32 noundef 106, ptr noundef @__func__.RSA_padding_check_PKCS1_type_1)
  call void (i32, i32, ptr, ...) @ERR_set_error(i32 noundef 4, i32 noundef 113, ptr noundef null)
  store i32 -1, ptr %6, align 4
  store i32 1, ptr %15, align 4
  br label %98

78:                                               ; preds = %73
  %79 = load i32, ptr %12, align 4, !tbaa !8
  %80 = icmp slt i32 %79, 8
  br i1 %80, label %81, label %82

81:                                               ; preds = %78
  call void @ERR_new()
  call void @ERR_set_debug(ptr noundef @.str, i32 noundef 111, ptr noundef @__func__.RSA_padding_check_PKCS1_type_1)
  call void (i32, i32, ptr, ...) @ERR_set_error(i32 noundef 4, i32 noundef 103, ptr noundef null)
  store i32 -1, ptr %6, align 4
  store i32 1, ptr %15, align 4
  br label %98

82:                                               ; preds = %78
  %83 = load i32, ptr %12, align 4, !tbaa !8
  %84 = add nsw i32 %83, 1
  store i32 %84, ptr %12, align 4, !tbaa !8
  %85 = load i32, ptr %12, align 4, !tbaa !8
  %86 = load i32, ptr %13, align 4, !tbaa !8
  %87 = sub nsw i32 %86, %85
  store i32 %87, ptr %13, align 4, !tbaa !8
  %88 = load i32, ptr %13, align 4, !tbaa !8
  %89 = load i32, ptr %8, align 4, !tbaa !8
  %90 = icmp sgt i32 %88, %89
  br i1 %90, label %91, label %92

91:                                               ; preds = %82
  call void @ERR_new()
  call void @ERR_set_debug(ptr noundef @.str, i32 noundef 117, ptr noundef @__func__.RSA_padding_check_PKCS1_type_1)
  call void (i32, i32, ptr, ...) @ERR_set_error(i32 noundef 4, i32 noundef 109, ptr noundef null)
  store i32 -1, ptr %6, align 4
  store i32 1, ptr %15, align 4
  br label %98

92:                                               ; preds = %82
  %93 = load ptr, ptr %7, align 8, !tbaa !3
  %94 = load ptr, ptr %14, align 8, !tbaa !3
  %95 = load i32, ptr %13, align 4, !tbaa !8
  %96 = zext i32 %95 to i64
  call void @llvm.memcpy.p0.p0.i64(ptr align 1 %93, ptr align 1 %94, i64 %96, i1 false)
  %97 = load i32, ptr %13, align 4, !tbaa !8
  store i32 %97, ptr %6, align 4
  store i32 1, ptr %15, align 4
  br label %98

98:                                               ; preds = %92, %91, %81, %77, %66, %45, %30, %19
  call void @llvm.lifetime.end.p0(i64 8, ptr %14) #6
  call void @llvm.lifetime.end.p0(i64 4, ptr %13) #6
  call void @llvm.lifetime.end.p0(i64 4, ptr %12) #6
  %99 = load i32, ptr %6, align 4
  ret i32 %99
}