; Function Attrs: nounwind uwtable
define range(i32 -2147483648, 2147483638) i32 @RSA_padding_check_PKCS1_type_1(ptr noundef writeonly captures(none) %0, i32 noundef %1, ptr noundef readonly captures(none) %2, i32 noundef %3, i32 noundef %4) local_unnamed_addr #0 {
  %6 = icmp slt i32 %4, 11
  br i1 %6, label %36, label %7

7:                                                ; preds = %5
  %8 = icmp eq i32 %4, %3
  br i1 %8, label %9, label %15

9:                                                ; preds = %7
  %10 = load i8, ptr %2, align 1, !tbaa !3
  %.not = icmp eq i8 %10, 0
  br i1 %.not, label %12, label %11

11:                                               ; preds = %9
  tail call void @ERR_new() #5
  tail call void @ERR_set_debug(ptr noundef nonnull @.str, i32 noundef 79, ptr noundef nonnull @__func__.RSA_padding_check_PKCS1_type_1) #5
  tail call void (i32, i32, ptr, ...) @ERR_set_error(i32 noundef 4, i32 noundef 138, ptr noundef null) #5
  br label %36

12:                                               ; preds = %9
  %13 = getelementptr inbounds nuw i8, ptr %2, i64 1
  %14 = add nsw i32 %4, -1
  br label %15

15:                                               ; preds = %12, %7
  %.031 = phi i32 [ %14, %12 ], [ %3, %7 ]
  %.0 = phi ptr [ %13, %12 ], [ %2, %7 ]
  %16 = add nsw i32 %.031, 1
  %.not38 = icmp eq i32 %4, %16
  br i1 %.not38, label %17, label %19

17:                                               ; preds = %15
  %18 = load i8, ptr %.0, align 1, !tbaa !3
  %.not39 = icmp eq i8 %18, 1
  br i1 %.not39, label %.lr.ph.preheader, label %19

19:                                               ; preds = %17, %15
  tail call void @ERR_new() #5
  tail call void @ERR_set_debug(ptr noundef nonnull @.str, i32 noundef 86, ptr noundef nonnull @__func__.RSA_padding_check_PKCS1_type_1) #5
  tail call void (i32, i32, ptr, ...) @ERR_set_error(i32 noundef 4, i32 noundef 106, ptr noundef null) #5
  br label %36

.lr.ph.preheader:                                 ; preds = %17
  %20 = add nsw i32 %.031, -1
  br label %.lr.ph

.lr.ph:                                           ; preds = %.lr.ph.preheader, %23
  %.0.pn50 = phi ptr [ %.151, %23 ], [ %.0, %.lr.ph.preheader ]
  %.02949 = phi i32 [ %24, %23 ], [ 0, %.lr.ph.preheader ]
  %.151 = getelementptr inbounds nuw i8, ptr %.0.pn50, i64 1
  %21 = load i8, ptr %.151, align 1, !tbaa !3
  switch i8 %21, label %22 [
    i8 -1, label %23
    i8 0, label %.loopexit
  ]

22:                                               ; preds = %.lr.ph
  tail call void @ERR_new() #5
  tail call void @ERR_set_debug(ptr noundef nonnull @.str, i32 noundef 98, ptr noundef nonnull @__func__.RSA_padding_check_PKCS1_type_1) #5
  tail call void (i32, i32, ptr, ...) @ERR_set_error(i32 noundef 4, i32 noundef 102, ptr noundef null) #5
  br label %36

23:                                               ; preds = %.lr.ph
  %24 = add nuw nsw i32 %.02949, 1
  %exitcond.not = icmp eq i32 %24, %20
  br i1 %exitcond.not, label %.loopexit.thread, label %.lr.ph, !llvm.loop !6

.loopexit:                                        ; preds = %.lr.ph
  %25 = getelementptr inbounds nuw i8, ptr %.0.pn50, i64 2
  %26 = icmp eq i32 %.02949, %20
  br i1 %26, label %.loopexit.thread, label %27

.loopexit.thread:                                 ; preds = %23, %.loopexit
  tail call void @ERR_new() #5
  tail call void @ERR_set_debug(ptr noundef nonnull @.str, i32 noundef 106, ptr noundef nonnull @__func__.RSA_padding_check_PKCS1_type_1) #5
  tail call void (i32, i32, ptr, ...) @ERR_set_error(i32 noundef 4, i32 noundef 113, ptr noundef null) #5
  br label %36

27:                                               ; preds = %.loopexit
  %28 = icmp samesign ult i32 %.02949, 8
  br i1 %28, label %29, label %30

29:                                               ; preds = %27
  tail call void @ERR_new() #5
  tail call void @ERR_set_debug(ptr noundef nonnull @.str, i32 noundef 111, ptr noundef nonnull @__func__.RSA_padding_check_PKCS1_type_1) #5
  tail call void (i32, i32, ptr, ...) @ERR_set_error(i32 noundef 4, i32 noundef 103, ptr noundef null) #5
  br label %36

30:                                               ; preds = %27
  %.neg = xor i32 %.02949, -1
  %31 = add i32 %20, %.neg
  %32 = icmp sgt i32 %31, %1
  br i1 %32, label %33, label %34

33:                                               ; preds = %30
  tail call void @ERR_new() #5
  tail call void @ERR_set_debug(ptr noundef nonnull @.str, i32 noundef 117, ptr noundef nonnull @__func__.RSA_padding_check_PKCS1_type_1) #5
  tail call void (i32, i32, ptr, ...) @ERR_set_error(i32 noundef 4, i32 noundef 109, ptr noundef null) #5
  br label %36

34:                                               ; preds = %30
  %35 = zext i32 %31 to i64
  tail call void @llvm.memcpy.p0.p0.i64(ptr align 1 %0, ptr nonnull align 1 %25, i64 %35, i1 false)
  br label %36

36:                                               ; preds = %5, %34, %33, %29, %.loopexit.thread, %22, %19, %11
  %.030 = phi i32 [ -1, %11 ], [ -1, %19 ], [ -1, %.loopexit.thread ], [ -1, %29 ], [ -1, %33 ], [ %31, %34 ], [ -1, %22 ], [ -1, %5 ]
  ret i32 %.030
}